; Function Attrs: nofree norecurse nosync nounwind memory(write, argmem: readwrite, inaccessiblemem: none) uwtable
define void @Ptngc_pack_flush(ptr noundef captures(none) %0, ptr noundef captures(none) %1) local_unnamed_addr #6 {
  %3 = getelementptr inbounds nuw i8, ptr %0, i64 4
  %4 = load i32, ptr %3, align 4, !tbaa !3
  %5 = icmp sgt i32 %4, 0
  br i1 %5, label %.lr.ph.preheader.i.i, label %Ptngc_write_pattern.exit

.lr.ph.preheader.i.i:                             ; preds = %2
  %6 = sub nsw i32 8, %4
  %7 = load i32, ptr %0, align 4, !tbaa !8
  %8 = shl i32 %7, %6
  store i32 %8, ptr %0, align 4, !tbaa !8
  %.pre9.i.i = load ptr, ptr %1, align 8, !tbaa !9
  br label %.lr.ph.i.i

.lr.ph.i.i:                                       ; preds = %.lr.ph.i.i, %.lr.ph.preheader.i.i
  %9 = phi ptr [ %18, %.lr.ph.i.i ], [ %.pre9.i.i, %.lr.ph.preheader.i.i ]
  %10 = phi i32 [ %20, %.lr.ph.i.i ], [ %8, %.lr.ph.preheader.i.i ]
  %11 = phi i32 [ %21, %.lr.ph.i.i ], [ 8, %.lr.ph.preheader.i.i ]
  %12 = add nsw i32 %11, -8
  store i32 %12, ptr %3, align 4, !tbaa !3
  %13 = shl i32 255, %12
  %14 = xor i32 %13, -1
  %15 = lshr i32 %10, %12
  %16 = trunc i32 %15 to i8
  store i8 %16, ptr %9, align 1, !tbaa !12
  %17 = load ptr, ptr %1, align 8, !tbaa !9
  %18 = getelementptr inbounds nuw i8, ptr %17, i64 1
  store ptr %18, ptr %1, align 8, !tbaa !9
  %19 = load i32, ptr %0, align 4, !tbaa !8
  %20 = and i32 %19, %14
  store i32 %20, ptr %0, align 4, !tbaa !8
  %21 = load i32, ptr %3, align 4, !tbaa !3
  %22 = icmp sgt i32 %21, 7
  br i1 %22, label %.lr.ph.i.i, label %Ptngc_write_pattern.exit, !llvm.loop !13

Ptngc_write_pattern.exit:                         ; preds = %.lr.ph.i.i, %2
  ret void
}